target datalayout = "e-m:e-p270:32:32-p271:32:32-p272:64:64-i64:64-i128:128-f80:128-n8:16:32:64-S128"
target triple = "x86_64-pc-linux-gnu"

%struct._OGLSDOps = type { %struct._SurfaceDataOps, ptr, ptr, i32, i32, i8, i8, i32, i32, i32, i32, i32, i32, i32, i32, i32, i32, i32 }
%struct._SurfaceDataOps = type { ptr, ptr, ptr, ptr, ptr, ptr, ptr }

@.str.10 = private unnamed_addr constant [42 x i8] c"OGLSurfaceData_getTextureID: ops are null\00", align 1

; Function Attrs: nounwind uwtable
define i32 @Java_sun_java2d_opengl_OGLSurfaceData_getTextureID(ptr noundef %0, ptr noundef %1, i64 noundef %2) #0 {
  %4 = alloca i32, align 4
  %5 = alloca ptr, align 8
  %6 = alloca ptr, align 8
  %7 = alloca i64, align 8
  %8 = alloca ptr, align 8
  store ptr %0, ptr %5, align 8
  store ptr %1, ptr %6, align 8
  store i64 %2, ptr %7, align 8
  %9 = load i64, ptr %7, align 8
  %10 = inttoptr i64 %9 to ptr
  store ptr %10, ptr %8, align 8
  %11 = load ptr, ptr %8, align 8
  %12 = icmp eq ptr %11, null
  br i1 %12, label %13, label %14

13:                                               ; preds = %3
  call void (i32, i8, ptr, ...) @J2dTraceImpl(i32 noundef 1, i8 noundef zeroext 1, ptr noundef @.str.10)
  store i32 0, ptr %4, align 4
  br label %18

14:                                               ; preds = %3
  %15 = load ptr, ptr %8, align 8
  %16 = getelementptr inbounds %struct._OGLSDOps, ptr %15, i32 0, i32 11
  %17 = load i32, ptr %16, align 4
  store i32 %17, ptr %4, align 4
  br label %18

18:                                               ; preds = %14, %13
  %19 = load i32, ptr %4, align 4
  ret i32 %19
}