; Function Attrs: nounwind uwtable
define i32 @Java_sun_java2d_opengl_OGLSurfaceData_getTextureID(ptr nocapture noundef readnone %0, ptr nocapture noundef readnone %1, i64 noundef %2) local_unnamed_addr #1 {
  %4 = icmp eq i64 %2, 0
  br i1 %4, label %5, label %6

5:                                                ; preds = %3
  tail call void (i32, i8, ptr, ...) @J2dTraceImpl(i32 noundef 1, i8 noundef zeroext 1, ptr noundef nonnull @.str.10) #3
  br label %10

6:                                                ; preds = %3
  %7 = inttoptr i64 %2 to ptr
  %8 = getelementptr inbounds i8, ptr %7, i64 100
  %9 = load i32, ptr %8, align 4
  br label %10

10:                                               ; preds = %6, %5
  %.0 = phi i32 [ 0, %5 ], [ %9, %6 ]
  ret i32 %.0
}